target datalayout = "e-m:e-p270:32:32-p271:32:32-p272:64:64-i64:64-i128:128-f80:128-n8:16:32:64-S128"
target triple = "x86_64-pc-linux-gnu"

%struct.WalSnd = type { i32, i32, i64, i8, i64, i64, i64, i64, i64, i64, i32, i8, i64, i32 }
%struct.SyncRepConfigData = type { i32, i32, i8, i32, [0 x i8] }

@SyncRepConfig = dso_local global ptr null, align 8
@.str.3 = private unnamed_addr constant [10 x i8] c"syncrep.c\00", align 1
@MyWalSnd = external global ptr, align 8
@__func__.SyncRepInitConfig = private unnamed_addr constant [18 x i8] c"SyncRepInitConfig\00", align 1
@.str.5 = private unnamed_addr constant [53 x i8] c"standby \22%s\22 now has synchronous standby priority %d\00", align 1
@application_name = external global ptr, align 8
@SyncRepStandbyNames = dso_local global ptr null, align 8
@am_cascading_walsender = external global i8, align 1
@.str.13 = private unnamed_addr constant [2 x i8] c"*\00", align 1

; Function Attrs: inlinehint nounwind uwtable
define internal i32 @tas(ptr noundef %0) #4 {
  %2 = alloca ptr, align 8
  %3 = alloca i8, align 1
  store ptr %0, ptr %2, align 8
  call void @llvm.lifetime.start.p0(i64 1, ptr %3) #8
  store i8 1, ptr %3, align 1
  %4 = load i8, ptr %3, align 1
  %5 = load ptr, ptr %2, align 8
  %6 = call i8 asm sideeffect "\09lock\09\09\09\0A\09xchgb\09$0,$1\09\0A", "=q,=*m,0,*m,~{memory},~{cc},~{dirflag},~{fpsr},~{flags}"(ptr elementtype(i8) %5, i8 %4, ptr elementtype(i8) %5) #8, !srcloc !11
  store i8 %6, ptr %3, align 1
  %7 = load i8, ptr %3, align 1
  %8 = zext i8 %7 to i32
  call void @llvm.lifetime.end.p0(i64 1, ptr %3) #8
  ret i32 %8
}

; Function Attrs: nounwind uwtable
define internal i32 @SyncRepGetStandbyPriority() #0 {
  %1 = alloca i32, align 4
  %2 = alloca ptr, align 8
  %3 = alloca i32, align 4
  %4 = alloca i8, align 1
  %5 = alloca i32, align 4
  call void @llvm.lifetime.start.p0(i64 8, ptr %2) #8
  call void @llvm.lifetime.start.p0(i64 4, ptr %3) #8
  call void @llvm.lifetime.start.p0(i64 1, ptr %4) #8
  store i8 0, ptr %4, align 1
  %6 = load i8, ptr @am_cascading_walsender, align 1, !range !4, !noundef !5
  %7 = trunc i8 %6 to i1
  br i1 %7, label %8, label %9

8:                                                ; preds = %0
  store i32 0, ptr %1, align 4
  store i32 1, ptr %5, align 4
  br label %66

9:                                                ; preds = %0
  %10 = load ptr, ptr @SyncRepStandbyNames, align 8
  %11 = icmp ne ptr %10, null
  br i1 %11, label %12, label %21

12:                                               ; preds = %9
  %13 = load ptr, ptr @SyncRepStandbyNames, align 8
  %14 = getelementptr inbounds i8, ptr %13, i64 0
  %15 = load i8, ptr %14, align 1
  %16 = sext i8 %15 to i32
  %17 = icmp ne i32 %16, 0
  br i1 %17, label %18, label %21

18:                                               ; preds = %12
  %19 = load ptr, ptr @SyncRepConfig, align 8
  %20 = icmp eq ptr %19, null
  br i1 %20, label %21, label %22

21:                                               ; preds = %18, %12, %9
  store i32 0, ptr %1, align 4
  store i32 1, ptr %5, align 4
  br label %66

22:                                               ; preds = %18
  %23 = load ptr, ptr @SyncRepConfig, align 8
  %24 = getelementptr inbounds nuw %struct.SyncRepConfigData, ptr %23, i32 0, i32 4
  %25 = getelementptr inbounds [0 x i8], ptr %24, i64 0, i64 0
  store ptr %25, ptr %2, align 8
  store i32 1, ptr %3, align 4
  br label %26

26:                                               ; preds = %48, %22
  %27 = load i32, ptr %3, align 4
  %28 = load ptr, ptr @SyncRepConfig, align 8
  %29 = getelementptr inbounds nuw %struct.SyncRepConfigData, ptr %28, i32 0, i32 3
  %30 = load i32, ptr %29, align 4
  %31 = icmp sle i32 %27, %30
  br i1 %31, label %32, label %51

32:                                               ; preds = %26
  %33 = load ptr, ptr %2, align 8
  %34 = load ptr, ptr @application_name, align 8
  %35 = call i32 @pg_strcasecmp(ptr noundef %33, ptr noundef %34)
  %36 = icmp eq i32 %35, 0
  br i1 %36, label %41, label %37

37:                                               ; preds = %32
  %38 = load ptr, ptr %2, align 8
  %39 = call i32 @strcmp(ptr noundef %38, ptr noundef @.str.13) #10
  %40 = icmp eq i32 %39, 0
  br i1 %40, label %41, label %42

41:                                               ; preds = %37, %32
  store i8 1, ptr %4, align 1
  br label %51

42:                                               ; preds = %37
  %43 = load ptr, ptr %2, align 8
  %44 = call i64 @strlen(ptr noundef %43) #10
  %45 = add i64 %44, 1
  %46 = load ptr, ptr %2, align 8
  %47 = getelementptr inbounds nuw i8, ptr %46, i64 %45
  store ptr %47, ptr %2, align 8
  br label %48

48:                                               ; preds = %42
  %49 = load i32, ptr %3, align 4
  %50 = add i32 %49, 1
  store i32 %50, ptr %3, align 4
  br label %26, !llvm.loop !10

51:                                               ; preds = %41, %26
  %52 = load i8, ptr %4, align 1, !range !4, !noundef !5
  %53 = trunc i8 %52 to i1
  br i1 %53, label %55, label %54

54:                                               ; preds = %51
  store i32 0, ptr %1, align 4
  store i32 1, ptr %5, align 4
  br label %66

55:                                               ; preds = %51
  %56 = load ptr, ptr @SyncRepConfig, align 8
  %57 = getelementptr inbounds nuw %struct.SyncRepConfigData, ptr %56, i32 0, i32 2
  %58 = load i8, ptr %57, align 4
  %59 = zext i8 %58 to i32
  %60 = icmp eq i32 %59, 0
  br i1 %60, label %61, label %63

61:                                               ; preds = %55
  %62 = load i32, ptr %3, align 4
  br label %64

63:                                               ; preds = %55
  br label %64

64:                                               ; preds = %63, %61
  %65 = phi i32 [ %62, %61 ], [ 1, %63 ]
  store i32 %65, ptr %1, align 4
  store i32 1, ptr %5, align 4
  br label %66

66:                                               ; preds = %64, %54, %21, %8
  call void @llvm.lifetime.end.p0(i64 1, ptr %4) #8
  call void @llvm.lifetime.end.p0(i64 4, ptr %3) #8
  call void @llvm.lifetime.end.p0(i64 8, ptr %2) #8
  %67 = load i32, ptr %1, align 4
  ret i32 %67
}

; Function Attrs: nounwind uwtable
define dso_local void @SyncRepInitConfig() #0 {
  %1 = alloca i32, align 4
  call void @llvm.lifetime.start.p0(i64 4, ptr %1) #8
  %2 = call i32 @SyncRepGetStandbyPriority()
  store i32 %2, ptr %1, align 4
  %3 = load ptr, ptr @MyWalSnd, align 8
  %4 = getelementptr inbounds nuw %struct.WalSnd, ptr %3, i32 0, i32 10
  %5 = load i32, ptr %4, align 8
  %6 = load i32, ptr %1, align 4
  %7 = icmp ne i32 %5, %6
  br i1 %7, label %8, label %39

8:                                                ; preds = %0
  %9 = load ptr, ptr @MyWalSnd, align 8
  %10 = getelementptr inbounds nuw %struct.WalSnd, ptr %9, i32 0, i32 11
  %11 = call i32 @tas(ptr noundef %10)
  %12 = icmp ne i32 %11, 0
  br i1 %12, label %13, label %17

13:                                               ; preds = %8
  %14 = load ptr, ptr @MyWalSnd, align 8
  %15 = getelementptr inbounds nuw %struct.WalSnd, ptr %14, i32 0, i32 11
  %16 = call i32 @s_lock(ptr noundef %15, ptr noundef @.str.3, i32 noundef 413, ptr noundef @__func__.SyncRepInitConfig)
  br label %18

17:                                               ; preds = %8
  br label %18

18:                                               ; preds = %17, %13
  %19 = load i32, ptr %1, align 4
  %20 = load ptr, ptr @MyWalSnd, align 8
  %21 = getelementptr inbounds nuw %struct.WalSnd, ptr %20, i32 0, i32 10
  store i32 %19, ptr %21, align 8
  br label %22

22:                                               ; preds = %18
  call void asm sideeffect "", "~{memory},~{dirflag},~{fpsr},~{flags}"() #8, !srcloc !9
  %23 = load ptr, ptr @MyWalSnd, align 8
  %24 = getelementptr inbounds nuw %struct.WalSnd, ptr %23, i32 0, i32 11
  store i8 0, ptr %24, align 4
  br label %25

25:                                               ; preds = %22
  br label %26

26:                                               ; preds = %25
  br label %27

27:                                               ; preds = %26
  br i1 false, label %28, label %30

28:                                               ; preds = %27
  %29 = call zeroext i1 @errstart_cold(i32 noundef 14, ptr noundef null) #9
  br i1 %29, label %32, label %36

30:                                               ; preds = %27
  %31 = call zeroext i1 @errstart(i32 noundef 14, ptr noundef null)
  br i1 %31, label %32, label %36

32:                                               ; preds = %30, %28
  %33 = load ptr, ptr @application_name, align 8
  %34 = load i32, ptr %1, align 4
  %35 = call i32 (ptr, ...) @errmsg_internal(ptr noundef @.str.5, ptr noundef %33, i32 noundef %34)
  call void @errfinish(ptr noundef @.str.3, i32 noundef 419, ptr noundef @__func__.SyncRepInitConfig)
  br label %36

36:                                               ; preds = %32, %30, %28
  br label %37

37:                                               ; preds = %36
  br label %38

38:                                               ; preds = %37
  br label %39

39:                                               ; preds = %38, %0
  call void @llvm.lifetime.end.p0(i64 4, ptr %1) #8
  ret void
}