; Function Attrs: nounwind uwtable
define dso_local void @SyncRepInitConfig() local_unnamed_addr #0 {
  %1 = load i8, ptr @am_cascading_walsender, align 1, !range !4, !noundef !5
  %2 = trunc nuw i8 %1 to i1
  br i1 %2, label %SyncRepGetStandbyPriority.exit, label %3

3:                                                ; preds = %0
  %4 = load ptr, ptr @SyncRepStandbyNames, align 8
  %.not.i = icmp eq ptr %4, null
  br i1 %.not.i, label %SyncRepGetStandbyPriority.exit, label %5

5:                                                ; preds = %3
  %6 = load i8, ptr %4, align 1
  %7 = icmp eq i8 %6, 0
  %8 = load ptr, ptr @SyncRepConfig, align 8
  %9 = icmp eq ptr %8, null
  %or.cond.i = select i1 %7, i1 true, i1 %9
  br i1 %or.cond.i, label %SyncRepGetStandbyPriority.exit, label %10

10:                                               ; preds = %5
  %11 = getelementptr inbounds nuw i8, ptr %8, i64 12
  %12 = load i32, ptr %11, align 4
  %.not14.not16.i = icmp slt i32 %12, 1
  br i1 %.not14.not16.i, label %SyncRepGetStandbyPriority.exit, label %.lr.ph.preheader.i

.lr.ph.preheader.i:                               ; preds = %10
  %13 = getelementptr inbounds nuw i8, ptr %8, i64 16
  br label %.lr.ph.i

.lr.ph.i:                                         ; preds = %.tail.thread.i, %.lr.ph.preheader.i
  %.0918.i = phi i32 [ %24, %.tail.thread.i ], [ 1, %.lr.ph.preheader.i ]
  %.01017.i = phi ptr [ %23, %.tail.thread.i ], [ %13, %.lr.ph.preheader.i ]
  %14 = load ptr, ptr @application_name, align 8
  %15 = tail call i32 @pg_strcasecmp(ptr noundef %.01017.i, ptr noundef %14) #10
  %16 = icmp eq i32 %15, 0
  br i1 %16, label %28, label %sub_0.i

sub_0.i:                                          ; preds = %.lr.ph.i
  %17 = load i8, ptr %.01017.i, align 1
  %.not19.i = icmp eq i8 %17, 42
  br i1 %.not19.i, label %.tail.i, label %.tail.thread.i

.tail.i:                                          ; preds = %sub_0.i
  %18 = getelementptr inbounds nuw i8, ptr %.01017.i, i64 1
  %19 = load i8, ptr %18, align 1
  %20 = icmp eq i8 %19, 0
  br i1 %20, label %28, label %.tail.thread.i

.tail.thread.i:                                   ; preds = %.tail.i, %sub_0.i
  %21 = tail call i64 @strlen(ptr noundef nonnull dereferenceable(1) %.01017.i) #11
  %22 = getelementptr i8, ptr %.01017.i, i64 %21
  %23 = getelementptr i8, ptr %22, i64 1
  %24 = add i32 %.0918.i, 1
  %25 = load ptr, ptr @SyncRepConfig, align 8
  %26 = getelementptr inbounds nuw i8, ptr %25, i64 12
  %27 = load i32, ptr %26, align 4
  %.not14.not.i = icmp sgt i32 %24, %27
  br i1 %.not14.not.i, label %SyncRepGetStandbyPriority.exit, label %.lr.ph.i, !llvm.loop !9

28:                                               ; preds = %.tail.i, %.lr.ph.i
  %29 = load ptr, ptr @SyncRepConfig, align 8
  %30 = getelementptr inbounds nuw i8, ptr %29, i64 8
  %31 = load i8, ptr %30, align 4
  %32 = icmp eq i8 %31, 0
  %33 = select i1 %32, i32 %.0918.i, i32 1
  br label %SyncRepGetStandbyPriority.exit

SyncRepGetStandbyPriority.exit:                   ; preds = %.tail.thread.i, %0, %3, %5, %10, %28
  %.011.i = phi i32 [ %33, %28 ], [ 0, %0 ], [ 0, %5 ], [ 0, %3 ], [ 0, %10 ], [ 0, %.tail.thread.i ]
  %34 = load ptr, ptr @MyWalSnd, align 8
  %35 = getelementptr inbounds nuw i8, ptr %34, i64 72
  %36 = load i32, ptr %35, align 8
  %.not = icmp eq i32 %36, %.011.i
  br i1 %.not, label %53, label %37

37:                                               ; preds = %SyncRepGetStandbyPriority.exit
  %38 = getelementptr inbounds nuw i8, ptr %34, i64 76
  %39 = tail call i8 asm sideeffect "\09lock\09\09\09\0A\09xchgb\09$0,$1\09\0A", "=q,=*m,0,*m,~{memory},~{cc},~{dirflag},~{fpsr},~{flags}"(ptr nonnull elementtype(i8) %38, i8 1, ptr nonnull elementtype(i8) %38) #10, !srcloc !10
  %.not3 = icmp eq i8 %39, 0
  br i1 %.not3, label %44, label %40

40:                                               ; preds = %37
  %41 = load ptr, ptr @MyWalSnd, align 8
  %42 = getelementptr inbounds nuw i8, ptr %41, i64 76
  %43 = tail call i32 @s_lock(ptr noundef nonnull %42, ptr noundef nonnull @.str.3, i32 noundef 413, ptr noundef nonnull @__func__.SyncRepInitConfig) #10
  br label %44

44:                                               ; preds = %37, %40
  %45 = load ptr, ptr @MyWalSnd, align 8
  %46 = getelementptr inbounds nuw i8, ptr %45, i64 72
  store i32 %.011.i, ptr %46, align 8
  tail call void asm sideeffect "", "~{memory},~{dirflag},~{fpsr},~{flags}"() #10, !srcloc !11
  %47 = load ptr, ptr @MyWalSnd, align 8
  %48 = getelementptr inbounds nuw i8, ptr %47, i64 76
  store i8 0, ptr %48, align 4
  %49 = tail call zeroext i1 @errstart(i32 noundef 14, ptr noundef null) #10
  br i1 %49, label %50, label %53

50:                                               ; preds = %44
  %51 = load ptr, ptr @application_name, align 8
  %52 = tail call i32 (ptr, ...) @errmsg_internal(ptr noundef nonnull @.str.5, ptr noundef %51, i32 noundef %.011.i) #10
  tail call void @errfinish(ptr noundef nonnull @.str.3, i32 noundef 419, ptr noundef nonnull @__func__.SyncRepInitConfig) #10
  br label %53

53:                                               ; preds = %44, %50, %SyncRepGetStandbyPriority.exit
  ret void
}